; Function Attrs: nounwind uwtable
define ptr @l_Lean_Compiler_LCNF_anyFVarM___rarg(ptr noundef %0, ptr noundef %1, ptr noundef %2, ptr noundef %3) #0 {
  %5 = getelementptr inbounds nuw i8, ptr %0, i64 16
  %6 = load ptr, ptr %5, align 8, !tbaa !4
  %7 = ptrtoint ptr %6 to i64
  %8 = and i64 %7, 1
  %.not = icmp eq i64 %8, 0
  br i1 %.not, label %9, label %lean_inc.exit24

9:                                                ; preds = %4
  %.val.i = load i32, ptr %6, align 4, !tbaa !8
  %10 = icmp sgt i32 %.val.i, 0
  br i1 %10, label %11, label %13, !prof !13

11:                                               ; preds = %9
  %12 = add nuw i32 %.val.i, 1
  store i32 %12, ptr %6, align 4, !tbaa !8
  br label %lean_inc.exit24

13:                                               ; preds = %9
  %.not.i25 = icmp eq i32 %.val.i, 0
  br i1 %.not.i25, label %lean_inc.exit24, label %14

14:                                               ; preds = %13
  tail call void @lean_inc_ref_cold(ptr noundef nonnull %6) #4
  br label %lean_inc.exit24

lean_inc.exit24:                                  ; preds = %14, %13, %11, %4
  %15 = getelementptr inbounds nuw i8, ptr %1, i64 16
  %16 = load ptr, ptr %15, align 8, !tbaa !4
  %17 = ptrtoint ptr %16 to i64
  %18 = and i64 %17, 1
  %.not36 = icmp eq i64 %18, 0
  br i1 %.not36, label %19, label %lean_inc.exit23

19:                                               ; preds = %lean_inc.exit24
  %.val.i26 = load i32, ptr %16, align 4, !tbaa !8
  %20 = icmp sgt i32 %.val.i26, 0
  br i1 %20, label %21, label %23, !prof !13

21:                                               ; preds = %19
  %22 = add nuw i32 %.val.i26, 1
  store i32 %22, ptr %16, align 4, !tbaa !8
  br label %lean_inc.exit23

23:                                               ; preds = %19
  %.not.i27 = icmp eq i32 %.val.i26, 0
  br i1 %.not.i27, label %lean_inc.exit23, label %24

24:                                               ; preds = %23
  tail call void @lean_inc_ref_cold(ptr noundef nonnull %16) #4
  br label %lean_inc.exit23

lean_inc.exit23:                                  ; preds = %24, %23, %21, %lean_inc.exit24
  %25 = ptrtoint ptr %1 to i64
  %26 = and i64 %25, 1
  %.not37 = icmp eq i64 %26, 0
  br i1 %.not37, label %27, label %lean_dec.exit

27:                                               ; preds = %lean_inc.exit23
  %28 = load i32, ptr %1, align 4, !tbaa !8
  %29 = icmp sgt i32 %28, 1
  br i1 %29, label %30, label %32, !prof !13

30:                                               ; preds = %27
  %31 = add nsw i32 %28, -1
  store i32 %31, ptr %1, align 4, !tbaa !8
  br label %lean_dec.exit

32:                                               ; preds = %27
  %.not.i = icmp eq i32 %28, 0
  br i1 %.not.i, label %lean_dec.exit, label %33

33:                                               ; preds = %32
  tail call void @lean_dec_ref_cold(ptr noundef nonnull %1) #4
  br label %lean_dec.exit

lean_dec.exit:                                    ; preds = %33, %32, %30, %lean_inc.exit23
  %34 = ptrtoint ptr %0 to i64
  %35 = and i64 %34, 1
  %.not38 = icmp eq i64 %35, 0
  br i1 %.not38, label %36, label %lean_inc.exit22

36:                                               ; preds = %lean_dec.exit
  %.val.i29 = load i32, ptr %0, align 4, !tbaa !8
  %37 = icmp sgt i32 %.val.i29, 0
  br i1 %37, label %38, label %40, !prof !13

38:                                               ; preds = %36
  %39 = add nuw i32 %.val.i29, 1
  store i32 %39, ptr %0, align 4, !tbaa !8
  br label %43

40:                                               ; preds = %36
  %.not.i30 = icmp eq i32 %.val.i29, 0
  br i1 %.not.i30, label %43, label %41

41:                                               ; preds = %40
  tail call void @lean_inc_ref_cold(ptr noundef nonnull %0) #4
  br label %43

lean_inc.exit22:                                  ; preds = %lean_dec.exit
  %42 = tail call ptr @l_OptionT_instMonad___rarg(ptr noundef nonnull %0) #4
  br label %lean_inc.exit

43:                                               ; preds = %41, %40, %38
  %44 = tail call ptr @l_OptionT_instMonad___rarg(ptr noundef nonnull %0) #4
  %.val.i32 = load i32, ptr %0, align 4, !tbaa !8
  %45 = icmp sgt i32 %.val.i32, 0
  br i1 %45, label %46, label %48, !prof !13

46:                                               ; preds = %43
  %47 = add nuw i32 %.val.i32, 1
  store i32 %47, ptr %0, align 4, !tbaa !8
  br label %lean_inc.exit

48:                                               ; preds = %43
  %.not.i33 = icmp eq i32 %.val.i32, 0
  br i1 %.not.i33, label %lean_inc.exit, label %49

49:                                               ; preds = %48
  tail call void @lean_inc_ref_cold(ptr noundef nonnull %0) #4
  br label %lean_inc.exit

lean_inc.exit:                                    ; preds = %49, %48, %46, %lean_inc.exit22
  %50 = phi ptr [ %42, %lean_inc.exit22 ], [ %44, %46 ], [ %44, %48 ], [ %44, %49 ]
  tail call void @lean_inc_heartbeat() #4
  %51 = tail call noalias ptr @mi_malloc_small(i64 noundef 40) #4
  %52 = icmp eq ptr %51, null
  br i1 %52, label %53, label %lean_alloc_closure.exit

53:                                               ; preds = %lean_inc.exit
  tail call void @lean_internal_panic_out_of_memory() #5
  unreachable

lean_alloc_closure.exit:                          ; preds = %lean_inc.exit
  %54 = getelementptr inbounds nuw i8, ptr %51, i64 4
  store i32 1, ptr %51, align 4, !tbaa !8
  store i32 -184549336, ptr %54, align 4
  %55 = getelementptr inbounds nuw i8, ptr %51, i64 8
  store ptr @l_Lean_Compiler_LCNF_anyFVarM_go___rarg, ptr %55, align 8, !tbaa !4
  %56 = getelementptr inbounds nuw i8, ptr %51, i64 16
  store i16 3, ptr %56, align 8, !tbaa !11
  %57 = getelementptr inbounds nuw i8, ptr %51, i64 18
  store i16 2, ptr %57, align 2, !tbaa !11
  %58 = getelementptr inbounds nuw i8, ptr %51, i64 24
  store ptr %0, ptr %58, align 8, !tbaa !4
  %59 = getelementptr inbounds nuw i8, ptr %51, i64 32
  store ptr %2, ptr %59, align 8, !tbaa !4
  %60 = tail call ptr @lean_apply_4(ptr noundef %16, ptr noundef nonnull inttoptr (i64 1 to ptr), ptr noundef %50, ptr noundef nonnull %51, ptr noundef %3) #4
  tail call void @lean_inc_heartbeat() #4
  %61 = tail call noalias ptr @mi_malloc_small(i64 noundef 32) #4
  %62 = icmp eq ptr %61, null
  br i1 %62, label %63, label %lean_alloc_closure.exit35

63:                                               ; preds = %lean_alloc_closure.exit
  tail call void @lean_internal_panic_out_of_memory() #5
  unreachable

lean_alloc_closure.exit35:                        ; preds = %lean_alloc_closure.exit
  %64 = getelementptr inbounds nuw i8, ptr %61, i64 4
  store i32 1, ptr %61, align 4, !tbaa !8
  store i32 -184549344, ptr %64, align 4
  %65 = getelementptr inbounds nuw i8, ptr %61, i64 8
  store ptr @l_Lean_Compiler_LCNF_anyFVarM___rarg___lambda__1___boxed, ptr %65, align 8, !tbaa !4
  %66 = getelementptr inbounds nuw i8, ptr %61, i64 16
  store i16 2, ptr %66, align 8, !tbaa !11
  %67 = getelementptr inbounds nuw i8, ptr %61, i64 18
  store i16 1, ptr %67, align 2, !tbaa !11
  %68 = getelementptr inbounds nuw i8, ptr %61, i64 24
  store ptr %0, ptr %68, align 8, !tbaa !4
  %69 = tail call ptr @lean_apply_4(ptr noundef %6, ptr noundef nonnull inttoptr (i64 1 to ptr), ptr noundef nonnull inttoptr (i64 1 to ptr), ptr noundef %60, ptr noundef nonnull %61) #4
  ret ptr %69
}